; Function Attrs: mustprogress nounwind uwtable
define internal fastcc noundef zeroext i1 @_ZL11WriteToFileRKNSt7__cxx1112basic_stringIcSt11char_traitsIcESaIcEEEPKhm(ptr noundef nonnull readonly align 8 captures(none) dereferenceable(32) %0, ptr noundef nonnull captures(none) %1, i64 noundef range(i64 32, 65) %2) unnamed_addr #3 personality ptr @__gxx_personality_v0 {
  %4 = load ptr, ptr %0, align 8, !tbaa !25
  %5 = tail call noalias ptr @fopen(ptr noundef %4, ptr noundef nonnull @.str.5)
  %.not11 = icmp eq ptr %5, null
  br i1 %.not11, label %15, label %6

6:                                                ; preds = %3
  %7 = tail call i64 @fwrite(ptr noundef nonnull %1, i64 noundef %2, i64 noundef 1, ptr noundef nonnull %5)
  %.not = icmp eq i64 %7, 1
  br i1 %.not, label %22, label %8

8:                                                ; preds = %6
  %9 = load ptr, ptr @stderr, align 8, !tbaa !26
  %10 = load ptr, ptr %0, align 8, !tbaa !25
  %11 = tail call ptr @__errno_location() #19
  %12 = load i32, ptr %11, align 4, !tbaa !28
  %13 = tail call ptr @strerror(i32 noundef %12) #16
  %14 = tail call i32 (ptr, ptr, ...) @fprintf(ptr noundef %9, ptr noundef nonnull @.str.7, ptr noundef %10, ptr noundef %13) #20
  br label %22

15:                                               ; preds = %3
  %16 = load ptr, ptr @stderr, align 8, !tbaa !26
  %17 = load ptr, ptr %0, align 8, !tbaa !25
  %18 = tail call ptr @__errno_location() #19
  %19 = load i32, ptr %18, align 4, !tbaa !28
  %20 = tail call ptr @strerror(i32 noundef %19) #16
  %21 = tail call i32 (ptr, ptr, ...) @fprintf(ptr noundef %16, ptr noundef nonnull @.str.6, ptr noundef %17, ptr noundef %20) #20
  br label %_ZNSt10unique_ptrI8_IO_FILE10FileCloserED2Ev.exit

22:                                               ; preds = %6, %8
  %23 = tail call i32 @fclose(ptr noundef nonnull %5)
  br label %_ZNSt10unique_ptrI8_IO_FILE10FileCloserED2Ev.exit

_ZNSt10unique_ptrI8_IO_FILE10FileCloserED2Ev.exit: ; preds = %15, %22
  %.010 = phi i1 [ false, %15 ], [ %.not, %22 ]
  ret i1 %.010
}